; Function Attrs: mustprogress nofree norecurse nosync nounwind willreturn memory(readwrite, inaccessiblemem: none) uwtable
define hidden void @_ZN9Assembler9rep_stosbEv(ptr nocapture noundef nonnull readonly align 8 dereferenceable(40) %0) local_unnamed_addr #8 align 2 {
  %2 = getelementptr inbounds i8, ptr %0, i64 8
  %3 = load ptr, ptr %2, align 8
  %4 = getelementptr inbounds i8, ptr %3, i64 16
  %5 = load ptr, ptr %4, align 8
  %6 = getelementptr inbounds i8, ptr %5, i64 1
  store i8 -13, ptr %5, align 1
  %7 = getelementptr inbounds i8, ptr %5, i64 2
  store i8 72, ptr %6, align 1
  %8 = getelementptr inbounds i8, ptr %5, i64 3
  store i8 -86, ptr %7, align 1
  store ptr %8, ptr %4, align 8
  ret void
}